; Function Attrs: nounwind uwtable
define ptr @l_Array_mapMUnsafe_map___at_Lake_LeanLibConfig_mkDeclFields___spec__5(ptr readnone captures(none) %0, ptr readnone captures(none) %1, i64 noundef %2, i64 noundef %3, ptr noundef %4) local_unnamed_addr #0 {
  %.not43 = icmp ult i64 %3, %2
  br i1 %.not43, label %.lr.ph, label %._crit_edge

.lr.ph:                                           ; preds = %5, %56
  %.02045 = phi i64 [ %40, %56 ], [ %3, %5 ]
  %.02244 = phi ptr [ %.0.i.i31, %56 ], [ %4, %5 ]
  %6 = getelementptr inbounds nuw i8, ptr %.02244, i64 24
  %7 = getelementptr inbounds nuw [0 x ptr], ptr %6, i64 0, i64 %.02045
  %8 = load ptr, ptr %7, align 8, !tbaa !12
  %9 = ptrtoint ptr %8 to i64
  %10 = and i64 %9, 1
  %.not.i25 = icmp eq i64 %10, 0
  br i1 %.not.i25, label %11, label %lean_array_uget.exit

11:                                               ; preds = %.lr.ph
  %.val.i.i = load i32, ptr %8, align 4, !tbaa !8
  %12 = icmp sgt i32 %.val.i.i, 0
  br i1 %12, label %13, label %15, !prof !11

13:                                               ; preds = %11
  %14 = add nuw i32 %.val.i.i, 1
  store i32 %14, ptr %8, align 4, !tbaa !8
  br label %lean_array_uget.exit

15:                                               ; preds = %11
  %.not.i.i = icmp eq i32 %.val.i.i, 0
  br i1 %.not.i.i, label %lean_array_uget.exit, label %16

16:                                               ; preds = %15
  tail call void @lean_inc_ref_cold(ptr noundef nonnull %8) #6
  br label %lean_array_uget.exit

lean_array_uget.exit:                             ; preds = %.lr.ph, %13, %15, %16
  %.val.i.i26 = load i32, ptr %.02244, align 4, !tbaa !8
  %17 = icmp eq i32 %.val.i.i26, 1
  br i1 %17, label %lean_ensure_exclusive_array.exit.i, label %18

18:                                               ; preds = %lean_array_uget.exit
  %19 = tail call ptr @lean_copy_expand_array(ptr noundef nonnull %.02244, i1 noundef zeroext false) #6
  br label %lean_ensure_exclusive_array.exit.i

lean_ensure_exclusive_array.exit.i:               ; preds = %18, %lean_array_uget.exit
  %.0.i.i = phi ptr [ %19, %18 ], [ %.02244, %lean_array_uget.exit ]
  %20 = getelementptr inbounds nuw i8, ptr %.0.i.i, i64 24
  %21 = getelementptr inbounds nuw ptr, ptr %20, i64 %.02045
  %22 = load ptr, ptr %21, align 8, !tbaa !12
  %23 = ptrtoint ptr %22 to i64
  %24 = and i64 %23, 1
  %.not.i27 = icmp eq i64 %24, 0
  br i1 %.not.i27, label %25, label %lean_array_uset.exit

25:                                               ; preds = %lean_ensure_exclusive_array.exit.i
  %26 = load i32, ptr %22, align 4, !tbaa !8
  %27 = icmp sgt i32 %26, 1
  br i1 %27, label %28, label %30, !prof !11

28:                                               ; preds = %25
  %29 = add nsw i32 %26, -1
  store i32 %29, ptr %22, align 4, !tbaa !8
  br label %lean_array_uset.exit

30:                                               ; preds = %25
  %.not.i.i28 = icmp eq i32 %26, 0
  br i1 %.not.i.i28, label %lean_array_uset.exit, label %31

31:                                               ; preds = %30
  tail call void @lean_dec_ref_cold(ptr noundef nonnull %22) #6
  br label %lean_array_uset.exit

lean_array_uset.exit:                             ; preds = %lean_ensure_exclusive_array.exit.i, %28, %30, %31
  store ptr inttoptr (i64 1 to ptr), ptr %21, align 8, !tbaa !12
  %32 = tail call ptr @l_Lean_Syntax_mkStrLit(ptr noundef %8, ptr noundef nonnull inttoptr (i64 5 to ptr)) #6
  br i1 %.not.i25, label %33, label %lean_dec.exit

33:                                               ; preds = %lean_array_uset.exit
  %34 = load i32, ptr %8, align 4, !tbaa !8
  %35 = icmp sgt i32 %34, 1
  br i1 %35, label %36, label %38, !prof !11

36:                                               ; preds = %33
  %37 = add nsw i32 %34, -1
  store i32 %37, ptr %8, align 4, !tbaa !8
  br label %lean_dec.exit

38:                                               ; preds = %33
  %.not.i = icmp eq i32 %34, 0
  br i1 %.not.i, label %lean_dec.exit, label %39

39:                                               ; preds = %38
  tail call void @lean_dec_ref_cold(ptr noundef nonnull %8) #6
  br label %lean_dec.exit

lean_dec.exit:                                    ; preds = %39, %38, %36, %lean_array_uset.exit
  %40 = add nuw i64 %.02045, 1
  %.val.i.i29 = load i32, ptr %.0.i.i, align 4, !tbaa !8
  %41 = icmp eq i32 %.val.i.i29, 1
  br i1 %41, label %lean_ensure_exclusive_array.exit.i30, label %42

42:                                               ; preds = %lean_dec.exit
  %43 = tail call ptr @lean_copy_expand_array(ptr noundef nonnull %.0.i.i, i1 noundef zeroext false) #6
  br label %lean_ensure_exclusive_array.exit.i30

lean_ensure_exclusive_array.exit.i30:             ; preds = %42, %lean_dec.exit
  %.0.i.i31 = phi ptr [ %43, %42 ], [ %.0.i.i, %lean_dec.exit ]
  %44 = getelementptr inbounds nuw i8, ptr %.0.i.i31, i64 24
  %45 = getelementptr inbounds nuw ptr, ptr %44, i64 %.02045
  %46 = load ptr, ptr %45, align 8, !tbaa !12
  %47 = ptrtoint ptr %46 to i64
  %48 = and i64 %47, 1
  %.not.i32 = icmp eq i64 %48, 0
  br i1 %.not.i32, label %49, label %56

49:                                               ; preds = %lean_ensure_exclusive_array.exit.i30
  %50 = load i32, ptr %46, align 4, !tbaa !8
  %51 = icmp sgt i32 %50, 1
  br i1 %51, label %52, label %54, !prof !11

52:                                               ; preds = %49
  %53 = add nsw i32 %50, -1
  store i32 %53, ptr %46, align 4, !tbaa !8
  br label %56

54:                                               ; preds = %49
  %.not.i.i33 = icmp eq i32 %50, 0
  br i1 %.not.i.i33, label %56, label %55

55:                                               ; preds = %54
  tail call void @lean_dec_ref_cold(ptr noundef nonnull %46) #6
  br label %56

56:                                               ; preds = %55, %54, %52, %lean_ensure_exclusive_array.exit.i30
  store ptr %32, ptr %45, align 8, !tbaa !12
  %exitcond.not = icmp eq i64 %40, %2
  br i1 %exitcond.not, label %._crit_edge, label %.lr.ph

._crit_edge:                                      ; preds = %56, %5
  %.022.lcssa = phi ptr [ %4, %5 ], [ %.0.i.i31, %56 ]
  ret ptr %.022.lcssa
}